; Function Attrs: mustprogress ssp uwtable
define void @_ZN6open3d4core10shape_util4IotaEl(ptr dead_on_unwind noalias writable sret(%"class.open3d::core::SizeVector") align 8 %0, i64 noundef %1) local_unnamed_addr #2 personality ptr @__gxx_personality_v0 {
  %3 = alloca i64, align 8
  store i64 %1, ptr %3, align 8, !tbaa !11
  %4 = icmp slt i64 %1, 0
  br i1 %4, label %5, label %6

5:                                                ; preds = %2
  call void @_ZN6open3d7utility6Logger9LogError_IJRlEEEvPKciS5_S5_DpOT_(ptr noundef nonnull @.str, i32 noundef 207, ptr noundef nonnull @__PRETTY_FUNCTION__._ZN6open3d4core10shape_util4IotaEl, ptr noundef nonnull @.str.57, ptr noundef nonnull align 8 dereferenceable(8) %3) #29
  unreachable

6:                                                ; preds = %2
  tail call void @_ZN6open3d4core10SizeVectorC1Ell(ptr noundef nonnull align 8 dereferenceable(48) %0, i64 noundef %1, i64 noundef 0)
  %7 = load ptr, ptr %0, align 8, !tbaa !10
  %8 = getelementptr inbounds nuw i8, ptr %0, i64 8
  %9 = load i32, ptr %8, align 8, !tbaa !4
  %10 = zext i32 %9 to i64
  %11 = getelementptr inbounds nuw i64, ptr %7, i64 %10
  %.not6.i = icmp eq i32 %9, 0
  br i1 %.not6.i, label %_ZSt4iotaIPliEvT_S1_T0_.exit, label %.lr.ph.i

.lr.ph.i:                                         ; preds = %6, %.lr.ph.i
  %indvars.iv.i = phi i64 [ %indvars.iv.next.i, %.lr.ph.i ], [ 0, %6 ]
  %.057.i = phi ptr [ %12, %.lr.ph.i ], [ %7, %6 ]
  store i64 %indvars.iv.i, ptr %.057.i, align 8, !tbaa !11
  %indvars.iv.next.i = add nuw nsw i64 %indvars.iv.i, 1
  %12 = getelementptr inbounds nuw i8, ptr %.057.i, i64 8
  %.not.i = icmp eq ptr %12, %11
  br i1 %.not.i, label %_ZSt4iotaIPliEvT_S1_T0_.exit, label %.lr.ph.i, !llvm.loop !661

_ZSt4iotaIPliEvT_S1_T0_.exit:                     ; preds = %.lr.ph.i, %6
  ret void
}